; Function Attrs: mustprogress uwtable
define hidden noundef zeroext i1 @_ZN12macro_finder8is_macroEP4exprR7obj_refI3app11ast_managerERS2_IS0_S4_E(ptr nocapture noundef nonnull readonly align 8 dereferenceable(40) %this, ptr nocapture noundef readonly %n, ptr noundef nonnull align 8 dereferenceable(16) %head, ptr noundef nonnull align 8 dereferenceable(16) %def) local_unnamed_addr #3 align 2 {
entry:
  %m_kind.i.i.i = getelementptr inbounds i8, ptr %n, i64 4
  %bf.load.i.i.i = load i32, ptr %m_kind.i.i.i, align 4
  %bf.clear.i.i.i = and i32 %bf.load.i.i.i, 65535
  %cmp.i.i = icmp eq i32 %bf.clear.i.i.i, 2
  br i1 %cmp.i.i, label %_Z9is_forallPK3ast.exit, label %return

_Z9is_forallPK3ast.exit:                          ; preds = %entry
  %m_kind.i.i = getelementptr inbounds i8, ptr %n, i64 16
  %0 = load i32, ptr %m_kind.i.i, align 8
  %cmp.i = icmp eq i32 %0, 0
  br i1 %cmp.i, label %if.end, label %return

if.end:                                           ; preds = %_Z9is_forallPK3ast.exit
  %m_expr.i = getelementptr inbounds i8, ptr %n, i64 24
  %1 = load ptr, ptr %m_expr.i, align 8
  %m_num_decls.i = getelementptr inbounds i8, ptr %n, i64 20
  %2 = load i32, ptr %m_num_decls.i, align 4
  %m_util = getelementptr inbounds i8, ptr %this, i64 16
  %3 = load ptr, ptr %m_util, align 8
  %call.i = tail call noundef zeroext i1 @_ZNK10macro_util20is_left_simple_macroEP4exprjR7obj_refI3app11ast_managerERS2_IS0_S4_E(ptr noundef nonnull align 8 dereferenceable(320) %3, ptr noundef %1, i32 noundef %2, ptr noundef nonnull align 8 dereferenceable(16) %head, ptr noundef nonnull align 8 dereferenceable(16) %def)
  br i1 %call.i, label %return, label %lor.rhs.i

lor.rhs.i:                                        ; preds = %if.end
  %call2.i = tail call noundef zeroext i1 @_ZNK10macro_util21is_right_simple_macroEP4exprjR7obj_refI3app11ast_managerERS2_IS0_S4_E(ptr noundef nonnull align 8 dereferenceable(320) %3, ptr noundef %1, i32 noundef %2, ptr noundef nonnull align 8 dereferenceable(16) %head, ptr noundef nonnull align 8 dereferenceable(16) %def)
  br label %return

return:                                           ; preds = %entry, %lor.rhs.i, %if.end, %_Z9is_forallPK3ast.exit
  %retval.0 = phi i1 [ false, %_Z9is_forallPK3ast.exit ], [ true, %if.end ], [ %call2.i, %lor.rhs.i ], [ false, %entry ]
  ret i1 %retval.0
}